; Function Attrs: nounwind uwtable
define internal fastcc range(i32 0, 2) i32 @test_exec_RR_ses(i32 noundef range(i32 0, 2) %0) unnamed_addr #0 {
  %2 = tail call fastcc ptr @set_up(ptr noundef nonnull @__func__.test_exec_RR_ses)
  %3 = icmp eq ptr %2, null
  br i1 %3, label %19, label %4

4:                                                ; preds = %1
  %.not = icmp eq i32 %0, 0
  br i1 %.not, label %9, label %5

5:                                                ; preds = %4
  %6 = getelementptr inbounds nuw i8, ptr %2, i64 8
  %7 = load ptr, ptr %6, align 8, !tbaa !23
  %8 = tail call i32 @OSSL_CMP_CTX_set1_oldCert(ptr noundef %7, ptr noundef null) #4
  br label %9

9:                                                ; preds = %5, %4
  %10 = phi i32 [ -3, %5 ], [ 0, %4 ]
  %11 = getelementptr inbounds nuw i8, ptr %2, i64 28
  store i32 %10, ptr %11, align 4, !tbaa !17
  %12 = tail call fastcc i32 @execute_exec_RR_ses_test(ptr noundef %2)
  %13 = getelementptr inbounds nuw i8, ptr %2, i64 8
  %14 = load ptr, ptr %13, align 8, !tbaa !23
  tail call void @OSSL_CMP_CTX_free(ptr noundef %14) #4
  %15 = getelementptr inbounds nuw i8, ptr %2, i64 16
  %16 = load ptr, ptr %15, align 8, !tbaa !24
  tail call void @ossl_cmp_mock_srv_free(ptr noundef %16) #4
  %17 = getelementptr inbounds nuw i8, ptr %2, i64 32
  %18 = load ptr, ptr %17, align 8, !tbaa !25
  tail call void @OPENSSL_sk_free(ptr noundef %18) #4
  tail call void @CRYPTO_free(ptr noundef nonnull %2, ptr noundef nonnull @.str.14, i32 noundef 51) #4
  br label %19

19:                                               ; preds = %1, %9
  %.09 = phi i32 [ %12, %9 ], [ 0, %1 ]
  ret i32 %.09
}